target datalayout = "e-m:e-p270:32:32-p271:32:32-p272:64:64-i64:64-i128:128-f80:128-n8:16:32:64-S128"
target triple = "x86_64-pc-linux-gnu"

%struct.Vec_Wrd_t_ = type { i32, i32, ptr }

@.str.6 = private unnamed_addr constant [3 x i8] c"wb\00", align 1
@.str.64 = private unnamed_addr constant [7 x i8] c"temp.v\00", align 1
@.str.65 = private unnamed_addr constant [26 x i8] c"Cannot open output file.\0A\00", align 1
@.str.66 = private unnamed_addr constant [61 x i8] c"module neuron_%d_%d_%d ( input [%d:0] i, output [%d:0] o );\0A\00", align 1
@.str.67 = private unnamed_addr constant [19 x i8] c"assign o = %d'h%lX\00", align 1
@.str.68 = private unnamed_addr constant [31 x i8] c"\0A         + %d'h%lX * i[%d:%d]\00", align 1
@.str.69 = private unnamed_addr constant [14 x i8] c";\0Aendmodule\0A\0A\00", align 1
@.str.70 = private unnamed_addr constant [53 x i8] c"Dumped the neuron specification into file \22temp.v\22.\0A\00", align 1

; Function Attrs: inlinehint nounwind uwtable
define internal i64 @Vec_WrdEntry(ptr noundef %0, i32 noundef %1) #4 {
  %3 = alloca ptr, align 8
  %4 = alloca i32, align 4
  store ptr %0, ptr %3, align 8, !tbaa !3
  store i32 %1, ptr %4, align 4, !tbaa !10
  %5 = load ptr, ptr %3, align 8, !tbaa !3
  %6 = getelementptr inbounds nuw %struct.Vec_Wrd_t_, ptr %5, i32 0, i32 2
  %7 = load ptr, ptr %6, align 8, !tbaa !43
  %8 = load i32, ptr %4, align 4, !tbaa !10
  %9 = sext i32 %8 to i64
  %10 = getelementptr inbounds i64, ptr %7, i64 %9
  %11 = load i64, ptr %10, align 8, !tbaa !45
  ret i64 %11
}

; Function Attrs: inlinehint nounwind uwtable
define internal i64 @Vec_WrdEntryLast(ptr noundef %0) #4 {
  %2 = alloca ptr, align 8
  store ptr %0, ptr %2, align 8, !tbaa !3
  %3 = load ptr, ptr %2, align 8, !tbaa !3
  %4 = getelementptr inbounds nuw %struct.Vec_Wrd_t_, ptr %3, i32 0, i32 2
  %5 = load ptr, ptr %4, align 8, !tbaa !43
  %6 = load ptr, ptr %2, align 8, !tbaa !3
  %7 = getelementptr inbounds nuw %struct.Vec_Wrd_t_, ptr %6, i32 0, i32 1
  %8 = load i32, ptr %7, align 4, !tbaa !62
  %9 = sub nsw i32 %8, 1
  %10 = sext i32 %9 to i64
  %11 = getelementptr inbounds i64, ptr %5, i64 %10
  %12 = load i64, ptr %11, align 8, !tbaa !45
  ret i64 %12
}

; Function Attrs: inlinehint nounwind uwtable
define internal i32 @Vec_WrdSize(ptr noundef %0) #4 {
  %2 = alloca ptr, align 8
  store ptr %0, ptr %2, align 8, !tbaa !3
  %3 = load ptr, ptr %2, align 8, !tbaa !3
  %4 = getelementptr inbounds nuw %struct.Vec_Wrd_t_, ptr %3, i32 0, i32 1
  %5 = load i32, ptr %4, align 4, !tbaa !62
  ret i32 %5
}

; Function Attrs: nounwind uwtable
define void @Gia_ManGenNeuronDumpVerilog(ptr noundef %0, i32 noundef %1, i32 noundef %2) #0 {
  %4 = alloca ptr, align 8
  %5 = alloca i32, align 4
  %6 = alloca i32, align 4
  %7 = alloca ptr, align 8
  %8 = alloca i32, align 4
  %9 = alloca i64, align 8
  %10 = alloca i32, align 4
  store ptr %0, ptr %4, align 8, !tbaa !3
  store i32 %1, ptr %5, align 4, !tbaa !10
  store i32 %2, ptr %6, align 4, !tbaa !10
  call void @llvm.lifetime.start.p0(i64 8, ptr %7) #15
  %11 = call noalias ptr @fopen(ptr noundef @.str.64, ptr noundef @.str.6)
  store ptr %11, ptr %7, align 8, !tbaa !54
  %12 = load ptr, ptr %7, align 8, !tbaa !54
  %13 = icmp eq ptr %12, null
  br i1 %13, label %14, label %16

14:                                               ; preds = %3
  %15 = call i32 (ptr, ...) @printf(ptr noundef @.str.65)
  store i32 1, ptr %8, align 4
  br label %71

16:                                               ; preds = %3
  %17 = load ptr, ptr %7, align 8, !tbaa !54
  %18 = load ptr, ptr %4, align 8, !tbaa !3
  %19 = call i32 @Vec_WrdSize(ptr noundef %18)
  %20 = sub nsw i32 %19, 1
  %21 = load i32, ptr %5, align 4, !tbaa !10
  %22 = load i32, ptr %6, align 4, !tbaa !10
  %23 = load ptr, ptr %4, align 8, !tbaa !3
  %24 = call i32 @Vec_WrdSize(ptr noundef %23)
  %25 = sub nsw i32 %24, 1
  %26 = load i32, ptr %5, align 4, !tbaa !10
  %27 = mul nsw i32 %25, %26
  %28 = sub nsw i32 %27, 1
  %29 = load i32, ptr %6, align 4, !tbaa !10
  %30 = sub nsw i32 %29, 1
  %31 = call i32 (ptr, ptr, ...) @fprintf(ptr noundef %17, ptr noundef @.str.66, i32 noundef %20, i32 noundef %21, i32 noundef %22, i32 noundef %28, i32 noundef %30) #15
  %32 = load ptr, ptr %7, align 8, !tbaa !54
  %33 = load i32, ptr %6, align 4, !tbaa !10
  %34 = load ptr, ptr %4, align 8, !tbaa !3
  %35 = call i64 @Vec_WrdEntryLast(ptr noundef %34)
  %36 = call i32 (ptr, ptr, ...) @fprintf(ptr noundef %32, ptr noundef @.str.67, i32 noundef %33, i64 noundef %35) #15
  call void @llvm.lifetime.start.p0(i64 8, ptr %9) #15
  call void @llvm.lifetime.start.p0(i64 4, ptr %10) #15
  store i32 0, ptr %10, align 4, !tbaa !10
  br label %37

37:                                               ; preds = %62, %16
  %38 = load i32, ptr %10, align 4, !tbaa !10
  %39 = load ptr, ptr %4, align 8, !tbaa !3
  %40 = call i32 @Vec_WrdSize(ptr noundef %39)
  %41 = sub nsw i32 %40, 1
  %42 = icmp slt i32 %38, %41
  br i1 %42, label %43, label %47

43:                                               ; preds = %37
  %44 = load ptr, ptr %4, align 8, !tbaa !3
  %45 = load i32, ptr %10, align 4, !tbaa !10
  %46 = call i64 @Vec_WrdEntry(ptr noundef %44, i32 noundef %45)
  store i64 %46, ptr %9, align 8, !tbaa !45
  br label %47

47:                                               ; preds = %43, %37
  %48 = phi i1 [ false, %37 ], [ true, %43 ]
  br i1 %48, label %49, label %65

49:                                               ; preds = %47
  %50 = load ptr, ptr %7, align 8, !tbaa !54
  %51 = load i32, ptr %6, align 4, !tbaa !10
  %52 = load i64, ptr %9, align 8, !tbaa !45
  %53 = load i32, ptr %5, align 4, !tbaa !10
  %54 = load i32, ptr %10, align 4, !tbaa !10
  %55 = add nsw i32 %54, 1
  %56 = mul nsw i32 %53, %55
  %57 = sub nsw i32 %56, 1
  %58 = load i32, ptr %5, align 4, !tbaa !10
  %59 = load i32, ptr %10, align 4, !tbaa !10
  %60 = mul nsw i32 %58, %59
  %61 = call i32 (ptr, ptr, ...) @fprintf(ptr noundef %50, ptr noundef @.str.68, i32 noundef %51, i64 noundef %52, i32 noundef %57, i32 noundef %60) #15
  br label %62

62:                                               ; preds = %49
  %63 = load i32, ptr %10, align 4, !tbaa !10
  %64 = add nsw i32 %63, 1
  store i32 %64, ptr %10, align 4, !tbaa !10
  br label %37, !llvm.loop !128

65:                                               ; preds = %47
  %66 = load ptr, ptr %7, align 8, !tbaa !54
  %67 = call i32 (ptr, ptr, ...) @fprintf(ptr noundef %66, ptr noundef @.str.69) #15
  %68 = load ptr, ptr %7, align 8, !tbaa !54
  %69 = call i32 @fclose(ptr noundef %68)
  %70 = call i32 (ptr, ...) @printf(ptr noundef @.str.70)
  call void @llvm.lifetime.end.p0(i64 4, ptr %10) #15
  call void @llvm.lifetime.end.p0(i64 8, ptr %9) #15
  store i32 0, ptr %8, align 4
  br label %71

71:                                               ; preds = %65, %14
  call void @llvm.lifetime.end.p0(i64 8, ptr %7) #15
  %72 = load i32, ptr %8, align 4
  switch i32 %72, label %74 [
    i32 0, label %73
    i32 1, label %73
  ]

73:                                               ; preds = %71, %71
  ret void

74:                                               ; preds = %71
  unreachable
}