; Function Attrs: nofree nounwind uwtable
define void @Gia_ManGenNeuronDumpVerilog(ptr noundef readonly captures(none) %0, i32 noundef %1, i32 noundef %2) local_unnamed_addr #7 {
  %4 = tail call noalias ptr @fopen(ptr noundef nonnull @.str.64, ptr noundef nonnull @.str.6)
  %5 = icmp eq ptr %4, null
  br i1 %5, label %32, label %6

6:                                                ; preds = %3
  %7 = getelementptr i8, ptr %0, i64 4
  %.val27 = load i32, ptr %7, align 4, !tbaa !50
  %8 = add nsw i32 %.val27, -1
  %9 = mul nsw i32 %8, %1
  %10 = add nsw i32 %9, -1
  %11 = add nsw i32 %2, -1
  %12 = tail call i32 (ptr, ptr, ...) @fprintf(ptr noundef nonnull %4, ptr noundef nonnull @.str.66, i32 noundef %8, i32 noundef %1, i32 noundef %2, i32 noundef %10, i32 noundef %11) #21
  %.val28 = load i32, ptr %7, align 4, !tbaa !50
  %13 = getelementptr i8, ptr %0, i64 8
  %.val29 = load ptr, ptr %13, align 8, !tbaa !13
  %14 = sext i32 %.val28 to i64
  %15 = getelementptr i64, ptr %.val29, i64 %14
  %16 = getelementptr i8, ptr %15, i64 -8
  %17 = load i64, ptr %16, align 8, !tbaa !16
  %18 = tail call i32 (ptr, ptr, ...) @fprintf(ptr noundef nonnull %4, ptr noundef nonnull @.str.67, i32 noundef %2, i64 noundef %17) #21
  %.val31 = load i32, ptr %7, align 4, !tbaa !50
  %19 = icmp sgt i32 %.val31, 1
  br i1 %19, label %.lr.ph, label %.critedge

.lr.ph:                                           ; preds = %6, %.lr.ph
  %indvars.iv = phi i64 [ %indvars.iv.next, %.lr.ph ], [ 0, %6 ]
  %indvars33 = trunc i64 %indvars.iv to i32
  %.val30 = load ptr, ptr %13, align 8, !tbaa !13
  %20 = getelementptr inbounds nuw i64, ptr %.val30, i64 %indvars.iv
  %21 = load i64, ptr %20, align 8, !tbaa !16
  %indvars.iv.next = add nuw nsw i64 %indvars.iv, 1
  %22 = mul nsw i32 %1, %indvars33
  %23 = trunc i64 %indvars.iv.next to i32
  %24 = mul i32 %1, %23
  %25 = add i32 %24, -1
  %26 = tail call i32 (ptr, ptr, ...) @fprintf(ptr noundef nonnull %4, ptr noundef nonnull @.str.68, i32 noundef %2, i64 noundef %21, i32 noundef %25, i32 noundef %22) #21
  %.val = load i32, ptr %7, align 4, !tbaa !50
  %27 = add nsw i32 %.val, -1
  %28 = sext i32 %27 to i64
  %29 = icmp slt i64 %indvars.iv.next, %28
  br i1 %29, label %.lr.ph, label %.critedge, !llvm.loop !119

.critedge:                                        ; preds = %.lr.ph, %6
  %30 = tail call i64 @fwrite(ptr nonnull @.str.69, i64 13, i64 1, ptr nonnull %4)
  %31 = tail call i32 @fclose(ptr noundef nonnull %4)
  br label %32

32:                                               ; preds = %3, %.critedge
  %str.3.sink = phi ptr [ @str.3, %.critedge ], [ @str.4, %3 ]
  %puts = tail call i32 @puts(ptr nonnull dereferenceable(1) %str.3.sink)
  ret void
}